target datalayout = "e-m:e-p270:32:32-p271:32:32-p272:64:64-i64:64-i128:128-f80:128-n8:16:32:64-S128"
target triple = "x86_64-pc-linux-gnu"

%struct.Vector3 = type { float, float, float }

; Function Attrs: nounwind uwtable
define { <2 x float>, float } @Vector3Normalize(<2 x float> %0, float %1) #9 {
  %3 = alloca %struct.Vector3, align 4
  %4 = alloca %struct.Vector3, align 4
  %5 = alloca { <2 x float>, float }, align 4
  %6 = alloca float, align 4
  %7 = alloca float, align 4
  %8 = alloca { <2 x float>, float }, align 8
  %9 = getelementptr inbounds nuw { <2 x float>, float }, ptr %5, i32 0, i32 0
  store <2 x float> %0, ptr %9, align 4
  %10 = getelementptr inbounds nuw { <2 x float>, float }, ptr %5, i32 0, i32 1
  store float %1, ptr %10, align 4
  call void @llvm.memcpy.p0.p0.i64(ptr align 4 %4, ptr align 4 %5, i64 12, i1 false)
  call void @llvm.memcpy.p0.p0.i64(ptr align 4 %3, ptr align 4 %4, i64 12, i1 false)
  call void @llvm.lifetime.start.p0(i64 4, ptr %6) #16
  %11 = getelementptr inbounds nuw %struct.Vector3, ptr %4, i32 0, i32 0
  %12 = load float, ptr %11, align 4
  %13 = getelementptr inbounds nuw %struct.Vector3, ptr %4, i32 0, i32 0
  %14 = load float, ptr %13, align 4
  %15 = getelementptr inbounds nuw %struct.Vector3, ptr %4, i32 0, i32 1
  %16 = load float, ptr %15, align 4
  %17 = getelementptr inbounds nuw %struct.Vector3, ptr %4, i32 0, i32 1
  %18 = load float, ptr %17, align 4
  %19 = fmul float %16, %18
  %20 = call float @llvm.fmuladd.f32(float %12, float %14, float %19)
  %21 = getelementptr inbounds nuw %struct.Vector3, ptr %4, i32 0, i32 2
  %22 = load float, ptr %21, align 4
  %23 = getelementptr inbounds nuw %struct.Vector3, ptr %4, i32 0, i32 2
  %24 = load float, ptr %23, align 4
  %25 = call float @llvm.fmuladd.f32(float %22, float %24, float %20)
  %26 = call float @sqrtf(float noundef %25) #16
  store float %26, ptr %6, align 4
  %27 = load float, ptr %6, align 4
  %28 = fcmp une float %27, 0.000000e+00
  br i1 %28, label %29, label %44

29:                                               ; preds = %2
  call void @llvm.lifetime.start.p0(i64 4, ptr %7) #16
  %30 = load float, ptr %6, align 4
  %31 = fdiv float 1.000000e+00, %30
  store float %31, ptr %7, align 4
  %32 = load float, ptr %7, align 4
  %33 = getelementptr inbounds nuw %struct.Vector3, ptr %3, i32 0, i32 0
  %34 = load float, ptr %33, align 4
  %35 = fmul float %34, %32
  store float %35, ptr %33, align 4
  %36 = load float, ptr %7, align 4
  %37 = getelementptr inbounds nuw %struct.Vector3, ptr %3, i32 0, i32 1
  %38 = load float, ptr %37, align 4
  %39 = fmul float %38, %36
  store float %39, ptr %37, align 4
  %40 = load float, ptr %7, align 4
  %41 = getelementptr inbounds nuw %struct.Vector3, ptr %3, i32 0, i32 2
  %42 = load float, ptr %41, align 4
  %43 = fmul float %42, %40
  store float %43, ptr %41, align 4
  call void @llvm.lifetime.end.p0(i64 4, ptr %7) #16
  br label %44

44:                                               ; preds = %29, %2
  call void @llvm.lifetime.end.p0(i64 4, ptr %6) #16
  call void @llvm.memcpy.p0.p0.i64(ptr align 8 %8, ptr align 4 %3, i64 12, i1 false)
  %45 = load { <2 x float>, float }, ptr %8, align 8
  ret { <2 x float>, float } %45
}