; Function Attrs: mustprogress nofree norecurse nosync nounwind willreturn memory(none) uwtable
define { <2 x float>, float } @Vector3Normalize(<2 x float> %0, float %1) local_unnamed_addr #17 {
  %.sroa.07.0.vec.extract = extractelement <2 x float> %0, i64 0
  %.sroa.07.4.vec.extract = extractelement <2 x float> %0, i64 1
  %3 = fmul float %.sroa.07.4.vec.extract, %.sroa.07.4.vec.extract
  %4 = tail call float @llvm.fmuladd.f32(float %.sroa.07.0.vec.extract, float %.sroa.07.0.vec.extract, float %3)
  %5 = tail call float @llvm.fmuladd.f32(float %1, float %1, float %4)
  %6 = fcmp une float %5, 0.000000e+00
  br i1 %6, label %7, label %12

7:                                                ; preds = %2
  %sqrt = tail call float @llvm.sqrt.f32(float %5)
  %8 = fdiv float 1.000000e+00, %sqrt
  %9 = fmul float %.sroa.07.0.vec.extract, %8
  %.sroa.013.0.vec.insert = insertelement <2 x float> poison, float %9, i64 0
  %10 = fmul float %.sroa.07.4.vec.extract, %8
  %.sroa.013.4.vec.insert = insertelement <2 x float> %.sroa.013.0.vec.insert, float %10, i64 1
  %11 = fmul float %1, %8
  br label %12

12:                                               ; preds = %7, %2
  %.sroa.013.0 = phi <2 x float> [ %.sroa.013.4.vec.insert, %7 ], [ %0, %2 ]
  %.sroa.617.0 = phi float [ %11, %7 ], [ %1, %2 ]
  %.fca.0.insert = insertvalue { <2 x float>, float } poison, <2 x float> %.sroa.013.0, 0
  %.fca.1.insert = insertvalue { <2 x float>, float } %.fca.0.insert, float %.sroa.617.0, 1
  ret { <2 x float>, float } %.fca.1.insert
}